target datalayout = "e-m:e-p270:32:32-p271:32:32-p272:64:64-i64:64-i128:128-f80:128-n8:16:32:64-S128"
target triple = "x86_64-pc-linux-gnu"

%"class.icu_77::Transliterator" = type <{ %"class.icu_77::UObject", %"class.icu_77::UnicodeString", ptr, i32, [4 x i8] }>
%"class.icu_77::UObject" = type { ptr }
%"class.icu_77::UnicodeString" = type { %"class.icu_77::Replaceable", %"union.icu_77::UnicodeString::StackBufferOrFields" }
%"class.icu_77::Replaceable" = type { %"class.icu_77::UObject" }
%"union.icu_77::UnicodeString::StackBufferOrFields" = type { %struct.anon.0, [32 x i8] }
%struct.anon.0 = type { i16, i32, i32, ptr }

; Function Attrs: mustprogress uwtable
define noundef nonnull align 8 dereferenceable(200) ptr @_ZNK6icu_7714Transliterator12getSourceSetERNS_10UnicodeSetE(ptr noundef nonnull align 8 dereferenceable(84) %0, ptr noundef nonnull align 8 dereferenceable(200) %1) #1 align 2 personality ptr @__gxx_personality_v0 {
  %3 = alloca ptr, align 8
  %4 = alloca ptr, align 8
  %5 = alloca ptr, align 8
  %6 = alloca ptr, align 8
  %7 = alloca i8, align 1
  %8 = alloca ptr, align 8
  %9 = alloca i1, align 1
  %10 = alloca ptr, align 8
  %11 = alloca i32, align 4
  %12 = alloca i32, align 4
  store ptr %0, ptr %4, align 8, !tbaa !23
  store ptr %1, ptr %5, align 8, !tbaa !71
  %13 = load ptr, ptr %4, align 8
  %14 = load ptr, ptr %5, align 8, !tbaa !71
  %15 = load ptr, ptr %13, align 8, !tbaa !29
  %16 = getelementptr inbounds ptr, ptr %15, i64 15
  %17 = load ptr, ptr %16, align 8
  call void %17(ptr noundef nonnull align 8 dereferenceable(84) %13, ptr noundef nonnull align 8 dereferenceable(200) %14)
  %18 = getelementptr inbounds nuw %"class.icu_77::Transliterator", ptr %13, i32 0, i32 2
  %19 = load ptr, ptr %18, align 8, !tbaa !31
  %20 = icmp ne ptr %19, null
  br i1 %20, label %21, label %75

21:                                               ; preds = %2
  call void @llvm.lifetime.start.p0(i64 8, ptr %6) #15
  %22 = getelementptr inbounds nuw %"class.icu_77::Transliterator", ptr %13, i32 0, i32 2
  %23 = load ptr, ptr %22, align 8, !tbaa !31
  %24 = icmp eq ptr %23, null
  br i1 %24, label %28, label %25

25:                                               ; preds = %21
  %26 = load ptr, ptr %23, align 8, !tbaa !29
  %27 = icmp eq ptr %26, getelementptr inbounds inrange(-16, 264) ({ [35 x ptr], [8 x ptr] }, ptr @_ZTVN6icu_7710UnicodeSetE, i32 0, i32 0, i32 2)
  br i1 %27, label %29, label %28

28:                                               ; preds = %25, %21
  br label %29

29:                                               ; preds = %28, %25
  %30 = phi ptr [ %23, %25 ], [ null, %28 ]
  store ptr %30, ptr %6, align 8, !tbaa !71
  call void @llvm.lifetime.start.p0(i64 1, ptr %7) #15
  store i8 0, ptr %7, align 1, !tbaa !41
  %31 = load ptr, ptr %6, align 8, !tbaa !71
  %32 = icmp eq ptr %31, null
  br i1 %32, label %33, label %60

33:                                               ; preds = %29
  %34 = call noundef ptr @_ZN6icu_777UMemorynwEm(i64 noundef 200) #15
  %35 = icmp eq ptr %34, null
  store i1 false, ptr %9, align 1
  br i1 %35, label %38, label %36

36:                                               ; preds = %33
  store ptr %34, ptr %8, align 8
  store i1 true, ptr %9, align 1
  invoke void @_ZN6icu_7710UnicodeSetC1Ev(ptr noundef nonnull align 8 dereferenceable(200) %34)
          to label %37 unwind label %44

37:                                               ; preds = %36
  br label %38

38:                                               ; preds = %37, %33
  %39 = phi ptr [ %34, %37 ], [ null, %33 ]
  store ptr %39, ptr %6, align 8, !tbaa !71
  %40 = load ptr, ptr %6, align 8, !tbaa !71
  %41 = icmp eq ptr %40, null
  br i1 %41, label %42, label %52

42:                                               ; preds = %38
  %43 = load ptr, ptr %5, align 8, !tbaa !71
  store ptr %43, ptr %3, align 8
  store i32 1, ptr %12, align 4
  br label %72

44:                                               ; preds = %36
  %45 = landingpad { ptr, i32 }
          cleanup
  %46 = extractvalue { ptr, i32 } %45, 0
  store ptr %46, ptr %10, align 8
  %47 = extractvalue { ptr, i32 } %45, 1
  store i32 %47, ptr %11, align 4
  %48 = load i1, ptr %9, align 1
  br i1 %48, label %49, label %51

49:                                               ; preds = %44
  %50 = load ptr, ptr %8, align 8
  call void @_ZN6icu_777UMemorydlEPv(ptr noundef %50) #15
  br label %51

51:                                               ; preds = %49, %44
  call void @llvm.lifetime.end.p0(i64 1, ptr %7) #15
  call void @llvm.lifetime.end.p0(i64 8, ptr %6) #15
  br label %79

52:                                               ; preds = %38
  store i8 1, ptr %7, align 1, !tbaa !41
  %53 = getelementptr inbounds nuw %"class.icu_77::Transliterator", ptr %13, i32 0, i32 2
  %54 = load ptr, ptr %53, align 8, !tbaa !31
  %55 = getelementptr inbounds i8, ptr %54, i64 8
  %56 = load ptr, ptr %6, align 8, !tbaa !71
  %57 = load ptr, ptr %55, align 8, !tbaa !29
  %58 = getelementptr inbounds ptr, ptr %57, i64 5
  %59 = load ptr, ptr %58, align 8
  call void %59(ptr noundef nonnull align 8 dereferenceable(8) %55, ptr noundef nonnull align 8 dereferenceable(200) %56)
  br label %60

60:                                               ; preds = %52, %29
  %61 = load ptr, ptr %5, align 8, !tbaa !71
  %62 = load ptr, ptr %6, align 8, !tbaa !71
  %63 = call noundef nonnull align 8 dereferenceable(200) ptr @_ZN6icu_7710UnicodeSet9retainAllERKS0_(ptr noundef nonnull align 8 dereferenceable(200) %61, ptr noundef nonnull align 8 dereferenceable(200) %62)
  %64 = load i8, ptr %7, align 1, !tbaa !41
  %65 = icmp ne i8 %64, 0
  br i1 %65, label %66, label %71

66:                                               ; preds = %60
  %67 = load ptr, ptr %6, align 8, !tbaa !71
  %68 = icmp eq ptr %67, null
  br i1 %68, label %70, label %69

69:                                               ; preds = %66
  call void @_ZN6icu_7710UnicodeSetD1Ev(ptr noundef nonnull align 8 dereferenceable(200) %67) #15
  call void @_ZN6icu_777UMemorydlEPv(ptr noundef %67) #15
  br label %70

70:                                               ; preds = %69, %66
  br label %71

71:                                               ; preds = %70, %60
  store i32 0, ptr %12, align 4
  br label %72

72:                                               ; preds = %71, %42
  call void @llvm.lifetime.end.p0(i64 1, ptr %7) #15
  call void @llvm.lifetime.end.p0(i64 8, ptr %6) #15
  %73 = load i32, ptr %12, align 4
  switch i32 %73, label %84 [
    i32 0, label %74
    i32 1, label %77
  ]

74:                                               ; preds = %72
  br label %75

75:                                               ; preds = %74, %2
  %76 = load ptr, ptr %5, align 8, !tbaa !71
  store ptr %76, ptr %3, align 8
  br label %77

77:                                               ; preds = %75, %72
  %78 = load ptr, ptr %3, align 8
  ret ptr %78

79:                                               ; preds = %51
  %80 = load ptr, ptr %10, align 8
  %81 = load i32, ptr %11, align 4
  %82 = insertvalue { ptr, i32 } poison, ptr %80, 0
  %83 = insertvalue { ptr, i32 } %82, i32 %81, 1
  resume { ptr, i32 } %83

84:                                               ; preds = %72
  unreachable
}